; Function Attrs: mustprogress nounwind uwtable
define dso_local void @_ZN4llvm11NamedMDNode13clearOperandsEv(ptr nocapture noundef nonnull readonly align 8 dereferenceable(64) %0) local_unnamed_addr #0 align 2 {
  %2 = getelementptr inbounds nuw i8, ptr %0, i64 56
  %3 = load ptr, ptr %2, align 8
  %4 = load ptr, ptr %3, align 8
  %5 = tail call noundef i64 @_ZNK4llvm15SmallVectorBaseIjE4sizeEv(ptr noundef nonnull align 8 dereferenceable(16) %3) #23
  %.not4.i.i = icmp eq i64 %5, 0
  br i1 %.not4.i.i, label %_ZN4llvm15SmallVectorImplINS_13TrackingMDRefEE5clearEv.exit, label %.lr.ph.i.preheader.i

.lr.ph.i.preheader.i:                             ; preds = %1
  %6 = getelementptr inbounds %"class.llvm::TrackingMDRef", ptr %4, i64 %5
  br label %.lr.ph.i.i

.lr.ph.i.i:                                       ; preds = %_ZN4llvm13TrackingMDRefD2Ev.exit.i.i, %.lr.ph.i.preheader.i
  %.05.i.i = phi ptr [ %7, %_ZN4llvm13TrackingMDRefD2Ev.exit.i.i ], [ %6, %.lr.ph.i.preheader.i ]
  %7 = getelementptr inbounds i8, ptr %.05.i.i, i64 -8
  %8 = load ptr, ptr %7, align 8
  %.not.i.i.i.i = icmp eq ptr %8, null
  br i1 %.not.i.i.i.i, label %_ZN4llvm13TrackingMDRefD2Ev.exit.i.i, label %9

9:                                                ; preds = %.lr.ph.i.i
  tail call void @_ZN4llvm16MetadataTracking7untrackEPvRNS_8MetadataE(ptr noundef nonnull %7, ptr noundef nonnull align 4 dereferenceable(8) %8)
  br label %_ZN4llvm13TrackingMDRefD2Ev.exit.i.i

_ZN4llvm13TrackingMDRefD2Ev.exit.i.i:             ; preds = %9, %.lr.ph.i.i
  %.not.i.i = icmp eq ptr %4, %7
  br i1 %.not.i.i, label %_ZN4llvm15SmallVectorImplINS_13TrackingMDRefEE5clearEv.exit, label %.lr.ph.i.i, !llvm.loop !437

_ZN4llvm15SmallVectorImplINS_13TrackingMDRefEE5clearEv.exit: ; preds = %_ZN4llvm13TrackingMDRefD2Ev.exit.i.i, %1
  %10 = getelementptr inbounds nuw i8, ptr %3, i64 8
  store i32 0, ptr %10, align 8
  ret void
}